#include <math.h>
#include <stdio.h>
#include <stdlib.h>
#include <string.h>

int main(void)
 {
	char sz[101]={'\0'};
	char s[50]={'\0'},w[50]={'\0'};
	scanf("%s%s",s,w);
	int i=0,j=0,k=0;

	for(i=0;i<strlen(w);i++)
	{
		if(s[0] == w[i])
		{
			k=i;
			for(j=0;j<strlen(s);j++,k++)
			{
				if(s[j] != w[k]){break;}
			}
		}
		if(j==strlen(s)) {printf("%d",i);break;}
	}
	
    return 0;
 }
