; ModuleID = 'source-C-CXX/44/1739.c'
source_filename = "source-C-CXX/44/1739.c"
target datalayout = "e-m:e-p270:32:32-p271:32:32-p272:64:64-i64:64-f80:128-n8:16:32:64-S128"
target triple = "x86_64-pc-linux-gnu"

@.str = private unnamed_addr constant [5 x i8] c"%s%s\00", align 1
@.str.1 = private unnamed_addr constant [3 x i8] c"%d\00", align 1

; Function Attrs: nofree nounwind sspstrong uwtable
define dso_local i32 @main() local_unnamed_addr #0 {
  %1 = alloca [50 x i8], align 16
  %2 = alloca [50 x i8], align 16
  %3 = getelementptr inbounds [50 x i8], [50 x i8]* %1, i64 0, i64 0
  call void @llvm.lifetime.start.p0i8(i64 50, i8* nonnull %3) #5
  call void @llvm.memset.p0i8.i64(i8* noundef nonnull align 16 dereferenceable(50) %3, i8 0, i64 50, i1 false)
  %4 = getelementptr inbounds [50 x i8], [50 x i8]* %2, i64 0, i64 0
  call void @llvm.lifetime.start.p0i8(i64 50, i8* nonnull %4) #5
  call void @llvm.memset.p0i8.i64(i8* noundef nonnull align 16 dereferenceable(50) %4, i8 0, i64 50, i1 false)
  %5 = call i32 (i8*, ...) @__isoc99_scanf(i8* getelementptr inbounds ([5 x i8], [5 x i8]* @.str, i64 0, i64 0), i8* nonnull %3, i8* nonnull %4)
  %6 = call i64 @strlen(i8* noundef nonnull %4) #6
  %7 = load i8, i8* %3, align 16
  %8 = icmp eq i64 %6, 0
  br i1 %8, label %49, label %9

9:                                                ; preds = %0
  %10 = call i64 @strlen(i8* noundef nonnull %3) #6
  %11 = getelementptr inbounds [50 x i8], [50 x i8]* %1, i64 0, i64 0
  %12 = load i8, i8* %11, align 16
  %13 = icmp eq i8 %12, %7
  br label %14

14:                                               ; preds = %9, %46
  %15 = phi i64 [ 0, %9 ], [ %47, %46 ]
  %16 = phi i32 [ 0, %9 ], [ %40, %46 ]
  %17 = getelementptr inbounds [50 x i8], [50 x i8]* %2, i64 0, i64 %15
  %18 = load i8, i8* %17, align 1, !tbaa !5
  %19 = icmp eq i8 %7, %18
  br i1 %19, label %20, label %39

20:                                               ; preds = %14
  %21 = call i64 @strlen(i8* noundef nonnull %3) #6
  %22 = icmp eq i64 %21, 0
  br i1 %22, label %39, label %23

23:                                               ; preds = %20
  br i1 %13, label %24, label %36

24:                                               ; preds = %23, %30
  %25 = phi i64 [ %28, %30 ], [ %15, %23 ]
  %26 = phi i64 [ %27, %30 ], [ 0, %23 ]
  %27 = add nuw i64 %26, 1
  %28 = add nuw i64 %25, 1
  %29 = icmp eq i64 %27, %21
  br i1 %29, label %36, label %30, !llvm.loop !8

30:                                               ; preds = %24
  %31 = getelementptr inbounds [50 x i8], [50 x i8]* %2, i64 0, i64 %28
  %32 = load i8, i8* %31, align 1, !tbaa !5
  %33 = getelementptr inbounds [50 x i8], [50 x i8]* %1, i64 0, i64 %27
  %34 = load i8, i8* %33, align 1, !tbaa !5
  %35 = icmp eq i8 %34, %32
  br i1 %35, label %24, label %36

36:                                               ; preds = %30, %24, %23
  %37 = phi i64 [ 0, %23 ], [ %27, %30 ], [ %21, %24 ]
  %38 = trunc i64 %37 to i32
  br label %39

39:                                               ; preds = %36, %20, %14
  %40 = phi i32 [ %16, %14 ], [ 0, %20 ], [ %38, %36 ]
  %41 = sext i32 %40 to i64
  %42 = icmp eq i64 %10, %41
  br i1 %42, label %43, label %46

43:                                               ; preds = %39
  %44 = trunc i64 %15 to i32
  %45 = call i32 (i8*, ...) @printf(i8* nonnull dereferenceable(1) getelementptr inbounds ([3 x i8], [3 x i8]* @.str.1, i64 0, i64 0), i32 %44)
  br label %49

46:                                               ; preds = %39
  %47 = add nuw i64 %15, 1
  %48 = icmp eq i64 %47, %6
  br i1 %48, label %49, label %14, !llvm.loop !10

49:                                               ; preds = %46, %0, %43
  call void @llvm.lifetime.end.p0i8(i64 50, i8* nonnull %4) #5
  call void @llvm.lifetime.end.p0i8(i64 50, i8* nonnull %3) #5
  ret i32 0
}

; Function Attrs: argmemonly mustprogress nofree nosync nounwind willreturn
declare void @llvm.lifetime.start.p0i8(i64 immarg, i8* nocapture) #1

; Function Attrs: argmemonly mustprogress nofree nounwind willreturn writeonly
declare void @llvm.memset.p0i8.i64(i8* nocapture writeonly, i8, i64, i1 immarg) #2

; Function Attrs: nofree nounwind
declare noundef i32 @__isoc99_scanf(i8* nocapture noundef readonly, ...) local_unnamed_addr #3

; Function Attrs: argmemonly mustprogress nofree nounwind readonly willreturn
declare i64 @strlen(i8* nocapture) local_unnamed_addr #4

; Function Attrs: nofree nounwind
declare noundef i32 @printf(i8* nocapture noundef readonly, ...) local_unnamed_addr #3

; Function Attrs: argmemonly mustprogress nofree nosync nounwind willreturn
declare void @llvm.lifetime.end.p0i8(i64 immarg, i8* nocapture) #1


!llvm.module.flags = !{!0, !1, !2, !3}
!llvm.ident = !{!4}

!0 = !{i32 1, !"wchar_size", i32 4}
!1 = !{i32 7, !"PIC Level", i32 2}
!2 = !{i32 7, !"PIE Level", i32 2}
!3 = !{i32 7, !"uwtable", i32 1}
!4 = !{!"clang version 13.0.0"}
!5 = !{!6, !6, i64 0}
!6 = !{!"omnipotent char", !7, i64 0}
!7 = !{!"Simple C/C++ TBAA"}
!8 = distinct !{!8, !9}
!9 = !{!"llvm.loop.mustprogress"}
!10 = distinct !{!10, !9}
